#include <math.h>
#include <stdio.h>
#include <stdlib.h>
#include <string.h>

  int main(){
  char sz[200];
  gets(sz);
  int k;
  for(int i=0;i<100;i++){
    for(k=0;sz[k]!='\0';k++){
	    if(sz[k]==' '){
		      if(sz[k+1]==' '){
			      for(;sz[k]!='\0';k++){
			        sz[k]=sz[k+1];
				  }
			  }
		}
	}
  }
  puts(sz);
  return 0;
}