; ModuleID = '26/1216.c'
source_filename = "26/1216.c"
target datalayout = "e-m:e-p270:32:32-p271:32:32-p272:64:64-i64:64-f80:128-n8:16:32:64-S128"
target triple = "x86_64-pc-linux-gnu"

; Function Attrs: noinline nounwind uwtable
define dso_local i32 @main() #0 {
  %1 = alloca i32, align 4
  %2 = alloca [200 x i8], align 16
  %3 = alloca i32, align 4
  %4 = alloca i32, align 4
  store i32 0, i32* %1, align 4
  %5 = getelementptr inbounds [200 x i8], [200 x i8]* %2, i64 0, i64 0
  %6 = call i32 (i8*, ...) bitcast (i32 (...)* @gets to i32 (i8*, ...)*)(i8* %5)
  store i32 0, i32* %4, align 4
  br label %7

7:                                                ; preds = %60, %0
  %8 = load i32, i32* %4, align 4
  %9 = icmp slt i32 %8, 100
  br i1 %9, label %10, label %63

10:                                               ; preds = %7
  store i32 0, i32* %3, align 4
  br label %11

11:                                               ; preds = %56, %10
  %12 = load i32, i32* %3, align 4
  %13 = sext i32 %12 to i64
  %14 = getelementptr inbounds [200 x i8], [200 x i8]* %2, i64 0, i64 %13
  %15 = load i8, i8* %14, align 1
  %16 = sext i8 %15 to i32
  %17 = icmp ne i32 %16, 0
  br i1 %17, label %18, label %59

18:                                               ; preds = %11
  %19 = load i32, i32* %3, align 4
  %20 = sext i32 %19 to i64
  %21 = getelementptr inbounds [200 x i8], [200 x i8]* %2, i64 0, i64 %20
  %22 = load i8, i8* %21, align 1
  %23 = sext i8 %22 to i32
  %24 = icmp eq i32 %23, 32
  br i1 %24, label %25, label %55

25:                                               ; preds = %18
  %26 = load i32, i32* %3, align 4
  %27 = add nsw i32 %26, 1
  %28 = sext i32 %27 to i64
  %29 = getelementptr inbounds [200 x i8], [200 x i8]* %2, i64 0, i64 %28
  %30 = load i8, i8* %29, align 1
  %31 = sext i8 %30 to i32
  %32 = icmp eq i32 %31, 32
  br i1 %32, label %33, label %54

33:                                               ; preds = %25
  br label %34

34:                                               ; preds = %50, %33
  %35 = load i32, i32* %3, align 4
  %36 = sext i32 %35 to i64
  %37 = getelementptr inbounds [200 x i8], [200 x i8]* %2, i64 0, i64 %36
  %38 = load i8, i8* %37, align 1
  %39 = sext i8 %38 to i32
  %40 = icmp ne i32 %39, 0
  br i1 %40, label %41, label %53

41:                                               ; preds = %34
  %42 = load i32, i32* %3, align 4
  %43 = add nsw i32 %42, 1
  %44 = sext i32 %43 to i64
  %45 = getelementptr inbounds [200 x i8], [200 x i8]* %2, i64 0, i64 %44
  %46 = load i8, i8* %45, align 1
  %47 = load i32, i32* %3, align 4
  %48 = sext i32 %47 to i64
  %49 = getelementptr inbounds [200 x i8], [200 x i8]* %2, i64 0, i64 %48
  store i8 %46, i8* %49, align 1
  br label %50

50:                                               ; preds = %41
  %51 = load i32, i32* %3, align 4
  %52 = add nsw i32 %51, 1
  store i32 %52, i32* %3, align 4
  br label %34

53:                                               ; preds = %34
  br label %54

54:                                               ; preds = %53, %25
  br label %55

55:                                               ; preds = %54, %18
  br label %56

56:                                               ; preds = %55
  %57 = load i32, i32* %3, align 4
  %58 = add nsw i32 %57, 1
  store i32 %58, i32* %3, align 4
  br label %11

59:                                               ; preds = %11
  br label %60

60:                                               ; preds = %59
  %61 = load i32, i32* %4, align 4
  %62 = add nsw i32 %61, 1
  store i32 %62, i32* %4, align 4
  br label %7

63:                                               ; preds = %7
  %64 = getelementptr inbounds [200 x i8], [200 x i8]* %2, i64 0, i64 0
  %65 = call i32 @puts(i8* %64)
  ret i32 0
}

declare dso_local i32 @gets(...) #1

declare dso_local i32 @puts(i8*) #1


!llvm.module.flags = !{!0}
!llvm.ident = !{!1}

!0 = !{i32 1, !"wchar_size", i32 4}
!1 = !{!"clang version 10.0.0-4ubuntu1 "}
