; ModuleID = 'source-C-CXX/25/1216.c'
source_filename = "source-C-CXX/25/1216.c"
target datalayout = "e-m:e-p270:32:32-p271:32:32-p272:64:64-i64:64-f80:128-n8:16:32:64-S128"
target triple = "x86_64-pc-linux-gnu"

; Function Attrs: nounwind sspstrong uwtable
define dso_local i32 @main() local_unnamed_addr #0 {
  %1 = alloca [200 x i8], align 16
  %2 = getelementptr inbounds [200 x i8], [200 x i8]* %1, i64 0, i64 0
  call void @llvm.lifetime.start.p0i8(i64 200, i8* nonnull %2) #4
  %3 = call i32 (i8*, ...) bitcast (i32 (...)* @gets to i32 (i8*, ...)*)(i8* nonnull %2) #4
  br label %4

4:                                                ; preds = %0, %32
  %5 = phi i32 [ 0, %0 ], [ %33, %32 ]
  br label %8

6:                                                ; preds = %32
  %7 = call i32 @puts(i8* nonnull %2)
  call void @llvm.lifetime.end.p0i8(i64 200, i8* nonnull %2) #4
  ret i32 0

8:                                                ; preds = %4, %29
  %9 = phi i32 [ %31, %29 ], [ 0, %4 ]
  %10 = sext i32 %9 to i64
  %11 = getelementptr inbounds [200 x i8], [200 x i8]* %1, i64 0, i64 %10
  %12 = load i8, i8* %11, align 1, !tbaa !5
  switch i8 %12, label %29 [
    i8 0, label %32
    i8 32, label %13
  ]

13:                                               ; preds = %8
  %14 = add nsw i32 %9, 1
  %15 = sext i32 %14 to i64
  %16 = getelementptr inbounds [200 x i8], [200 x i8]* %1, i64 0, i64 %15
  %17 = load i8, i8* %16, align 1, !tbaa !5
  %18 = icmp eq i8 %17, 32
  br i1 %18, label %19, label %29

19:                                               ; preds = %13, %19
  %20 = phi i64 [ %22, %19 ], [ %10, %13 ]
  %21 = phi i8* [ %23, %19 ], [ %11, %13 ]
  %22 = add nsw i64 %20, 1
  %23 = getelementptr inbounds [200 x i8], [200 x i8]* %1, i64 0, i64 %22
  %24 = load i8, i8* %23, align 1, !tbaa !5
  store i8 %24, i8* %21, align 1, !tbaa !5
  %25 = load i8, i8* %23, align 1, !tbaa !5
  %26 = icmp eq i8 %25, 0
  br i1 %26, label %27, label %19, !llvm.loop !8

27:                                               ; preds = %19
  %28 = trunc i64 %22 to i32
  br label %29

29:                                               ; preds = %27, %8, %13
  %30 = phi i32 [ %9, %13 ], [ %9, %8 ], [ %28, %27 ]
  %31 = add nsw i32 %30, 1
  br label %8, !llvm.loop !10

32:                                               ; preds = %8
  %33 = add nuw nsw i32 %5, 1
  %34 = icmp eq i32 %33, 100
  br i1 %34, label %6, label %4, !llvm.loop !11
}

; Function Attrs: argmemonly mustprogress nofree nosync nounwind willreturn
declare void @llvm.lifetime.start.p0i8(i64 immarg, i8* nocapture) #1

declare i32 @gets(...) local_unnamed_addr #2

; Function Attrs: argmemonly mustprogress nofree nosync nounwind willreturn
declare void @llvm.lifetime.end.p0i8(i64 immarg, i8* nocapture) #1

; Function Attrs: nofree nounwind
declare noundef i32 @puts(i8* nocapture noundef readonly) local_unnamed_addr #3


!llvm.module.flags = !{!0, !1, !2, !3}
!llvm.ident = !{!4}

!0 = !{i32 1, !"wchar_size", i32 4}
!1 = !{i32 7, !"PIC Level", i32 2}
!2 = !{i32 7, !"PIE Level", i32 2}
!3 = !{i32 7, !"uwtable", i32 1}
!4 = !{!"clang version 13.0.0"}
!5 = !{!6, !6, i64 0}
!6 = !{!"omnipotent char", !7, i64 0}
!7 = !{!"Simple C/C++ TBAA"}
!8 = distinct !{!8, !9}
!9 = !{!"llvm.loop.mustprogress"}
!10 = distinct !{!10, !9}
!11 = distinct !{!11, !9}
